; Function Attrs: nounwind uwtable
define zeroext i8 @l___private_Lake_Config_Glob_0__Lake_decEqGlob____x40_Lake_Config_Glob___hyg_197_(ptr noundef %0, ptr noundef %1) local_unnamed_addr #0 {
  %3 = ptrtoint ptr %0 to i64
  %4 = and i64 %3, 1
  %.not.i = icmp eq i64 %4, 0
  br i1 %.not.i, label %8, label %5

5:                                                ; preds = %2
  %6 = lshr i64 %3, 1
  %7 = trunc i64 %6 to i32
  br label %lean_obj_tag.exit

8:                                                ; preds = %2
  %9 = getelementptr i8, ptr %0, i64 4
  %.val.i = load i32, ptr %9, align 4
  %10 = lshr i32 %.val.i, 24
  br label %lean_obj_tag.exit

lean_obj_tag.exit:                                ; preds = %5, %8
  %.0.i = phi i32 [ %7, %5 ], [ %10, %8 ]
  %11 = ptrtoint ptr %1 to i64
  %12 = and i64 %11, 1
  %.not.i30 = icmp eq i64 %12, 0
  switch i32 %.0.i, label %29 [
    i32 0, label %13
    i32 1, label %21
  ]

13:                                               ; preds = %lean_obj_tag.exit
  br i1 %.not.i30, label %17, label %14

14:                                               ; preds = %13
  %15 = lshr i64 %11, 1
  %16 = trunc i64 %15 to i32
  br label %lean_obj_tag.exit25

17:                                               ; preds = %13
  %18 = getelementptr i8, ptr %1, i64 4
  %.val.i24 = load i32, ptr %18, align 4
  %19 = lshr i32 %.val.i24, 24
  br label %lean_obj_tag.exit25

lean_obj_tag.exit25:                              ; preds = %14, %17
  %.0.i23 = phi i32 [ %16, %14 ], [ %19, %17 ]
  %20 = icmp eq i32 %.0.i23, 0
  br i1 %20, label %.sink.split, label %42

21:                                               ; preds = %lean_obj_tag.exit
  br i1 %.not.i30, label %25, label %22

22:                                               ; preds = %21
  %23 = lshr i64 %11, 1
  %24 = trunc i64 %23 to i32
  br label %lean_obj_tag.exit29

25:                                               ; preds = %21
  %26 = getelementptr i8, ptr %1, i64 4
  %.val.i28 = load i32, ptr %26, align 4
  %27 = lshr i32 %.val.i28, 24
  br label %lean_obj_tag.exit29

lean_obj_tag.exit29:                              ; preds = %22, %25
  %.0.i27 = phi i32 [ %24, %22 ], [ %27, %25 ]
  %28 = icmp eq i32 %.0.i27, 1
  br i1 %28, label %.sink.split, label %42

29:                                               ; preds = %lean_obj_tag.exit
  br i1 %.not.i30, label %33, label %30

30:                                               ; preds = %29
  %31 = lshr i64 %11, 1
  %32 = trunc i64 %31 to i32
  br label %lean_obj_tag.exit33

33:                                               ; preds = %29
  %34 = getelementptr i8, ptr %1, i64 4
  %.val.i32 = load i32, ptr %34, align 4
  %35 = lshr i32 %.val.i32, 24
  br label %lean_obj_tag.exit33

lean_obj_tag.exit33:                              ; preds = %30, %33
  %.0.i31 = phi i32 [ %32, %30 ], [ %35, %33 ]
  %36 = icmp eq i32 %.0.i31, 2
  br i1 %36, label %.sink.split, label %42

.sink.split:                                      ; preds = %lean_obj_tag.exit33, %lean_obj_tag.exit29, %lean_obj_tag.exit25
  %37 = getelementptr inbounds nuw i8, ptr %0, i64 8
  %38 = load ptr, ptr %37, align 8, !tbaa !4
  %39 = getelementptr inbounds nuw i8, ptr %1, i64 8
  %40 = load ptr, ptr %39, align 8, !tbaa !4
  %41 = tail call zeroext i8 @lean_name_eq(ptr noundef %38, ptr noundef %40) #4
  br label %42

42:                                               ; preds = %.sink.split, %lean_obj_tag.exit33, %lean_obj_tag.exit29, %lean_obj_tag.exit25
  %.0 = phi i8 [ 0, %lean_obj_tag.exit25 ], [ 0, %lean_obj_tag.exit29 ], [ 0, %lean_obj_tag.exit33 ], [ %41, %.sink.split ]
  ret i8 %.0
}